target datalayout = "e-m:e-p270:32:32-p271:32:32-p272:64:64-i64:64-i128:128-f80:128-n8:16:32:64-S128"
target triple = "x86_64-pc-linux-gnu"

%"class.Imf_3_4::TypedAttribute" = type { %"class.Imf_3_4::Attribute", %"class.std::__cxx11::basic_string" }
%"class.Imf_3_4::Attribute" = type { ptr }
%"class.std::__cxx11::basic_string" = type { %"struct.std::__cxx11::basic_string<char>::_Alloc_hider", i64, %union.anon }
%"struct.std::__cxx11::basic_string<char>::_Alloc_hider" = type { ptr }
%union.anon = type { i64, [8 x i8] }

; Function Attrs: inlinehint mustprogress uwtable
define linkonce_odr hidden noundef zeroext i1 @_ZN7Imf_3_48StreamIO9readCharsERNS_7IStreamEPci(ptr noundef nonnull align 8 dereferenceable(40) %0, ptr noundef %1, i32 noundef %2) #11 comdat align 2 {
  %4 = alloca ptr, align 8
  %5 = alloca ptr, align 8
  %6 = alloca i32, align 4
  store ptr %0, ptr %4, align 8, !tbaa !27
  store ptr %1, ptr %5, align 8, !tbaa !30
  store i32 %2, ptr %6, align 4, !tbaa !16
  %7 = load ptr, ptr %4, align 8, !tbaa !27
  %8 = load ptr, ptr %5, align 8, !tbaa !30
  %9 = load i32, ptr %6, align 4, !tbaa !16
  %10 = load ptr, ptr %7, align 8, !tbaa !10
  %11 = getelementptr inbounds ptr, ptr %10, i64 3
  %12 = load ptr, ptr %11, align 8
  %13 = call noundef zeroext i1 %12(ptr noundef nonnull align 8 dereferenceable(40) %7, ptr noundef %8, i32 noundef %9)
  ret i1 %13
}

; Function Attrs: mustprogress nounwind uwtable
define available_externally noundef ptr @_ZNKSt7__cxx1112basic_stringIcSt11char_traitsIcESaIcEE7_M_dataEv(ptr noundef nonnull align 8 dereferenceable(32) %0) #5 align 2 {
  %2 = alloca ptr, align 8
  store ptr %0, ptr %2, align 8, !tbaa !8
  %3 = load ptr, ptr %2, align 8
  %4 = getelementptr inbounds nuw %"class.std::__cxx11::basic_string", ptr %3, i32 0, i32 0
  %5 = getelementptr inbounds nuw %"struct.std::__cxx11::basic_string<char>::_Alloc_hider", ptr %4, i32 0, i32 0
  %6 = load ptr, ptr %5, align 8, !tbaa !38
  ret ptr %6
}

; Function Attrs: inlinehint mustprogress uwtable
define linkonce_odr hidden void @_ZN7Imf_3_43Xdr4readINS_8StreamIOENS_7IStreamEEEvRT0_Rc(ptr noundef nonnull align 8 dereferenceable(40) %0, ptr noundef nonnull align 1 dereferenceable(1) %1) #11 comdat {
  %3 = alloca ptr, align 8
  %4 = alloca ptr, align 8
  store ptr %0, ptr %3, align 8, !tbaa !27
  store ptr %1, ptr %4, align 8, !tbaa !30
  %5 = load ptr, ptr %3, align 8, !tbaa !27
  %6 = load ptr, ptr %4, align 8, !tbaa !30
  %7 = call noundef zeroext i1 @_ZN7Imf_3_48StreamIO9readCharsERNS_7IStreamEPci(ptr noundef nonnull align 8 dereferenceable(40) %5, ptr noundef %6, i32 noundef 1)
  ret void
}

; Function Attrs: mustprogress nounwind uwtable
define available_externally noundef nonnull align 1 dereferenceable(1) ptr @_ZNSt7__cxx1112basic_stringIcSt11char_traitsIcESaIcEEixEm(ptr noundef nonnull align 8 dereferenceable(32) %0, i64 noundef %1) #5 align 2 {
  %3 = alloca ptr, align 8
  %4 = alloca i64, align 8
  store ptr %0, ptr %3, align 8, !tbaa !8
  store i64 %1, ptr %4, align 8, !tbaa !26
  %5 = load ptr, ptr %3, align 8
  br label %6

6:                                                ; preds = %2
  br label %7

7:                                                ; preds = %6
  %8 = call noundef ptr @_ZNKSt7__cxx1112basic_stringIcSt11char_traitsIcESaIcEE7_M_dataEv(ptr noundef nonnull align 8 dereferenceable(32) %5)
  %9 = load i64, ptr %4, align 8, !tbaa !26
  %10 = getelementptr inbounds nuw i8, ptr %8, i64 %9
  ret ptr %10
}

; Function Attrs: mustprogress uwtable
define available_externally void @_ZNSt7__cxx1112basic_stringIcSt11char_traitsIcESaIcEE6resizeEm(ptr noundef nonnull align 8 dereferenceable(32) %0, i64 noundef %1) #4 align 2 {
  %3 = alloca ptr, align 8
  %4 = alloca i64, align 8
  store ptr %0, ptr %3, align 8, !tbaa !8
  store i64 %1, ptr %4, align 8, !tbaa !26
  %5 = load ptr, ptr %3, align 8
  %6 = load i64, ptr %4, align 8, !tbaa !26
  call void @_ZNSt7__cxx1112basic_stringIcSt11char_traitsIcESaIcEE6resizeEmc(ptr noundef nonnull align 8 dereferenceable(32) %5, i64 noundef %6, i8 noundef signext 0)
  ret void
}

; Function Attrs: mustprogress uwtable
define void @_ZN7Imf_3_414TypedAttributeINSt7__cxx1112basic_stringIcSt11char_traitsIcESaIcEEEE13readValueFromERNS_7IStreamEii(ptr noundef nonnull align 8 dereferenceable(40) %0, ptr noundef nonnull align 8 dereferenceable(40) %1, i32 noundef %2, i32 noundef %3) unnamed_addr #4 align 2 {
  %5 = alloca ptr, align 8
  %6 = alloca ptr, align 8
  %7 = alloca i32, align 4
  %8 = alloca i32, align 4
  %9 = alloca i32, align 4
  store ptr %0, ptr %5, align 8, !tbaa !3
  store ptr %1, ptr %6, align 8, !tbaa !27
  store i32 %2, ptr %7, align 4, !tbaa !16
  store i32 %3, ptr %8, align 4, !tbaa !16
  %10 = load ptr, ptr %5, align 8
  %11 = getelementptr inbounds nuw %"class.Imf_3_4::TypedAttribute", ptr %10, i32 0, i32 1
  %12 = load i32, ptr %7, align 4, !tbaa !16
  %13 = sext i32 %12 to i64
  call void @_ZNSt7__cxx1112basic_stringIcSt11char_traitsIcESaIcEE6resizeEm(ptr noundef nonnull align 8 dereferenceable(32) %11, i64 noundef %13)
  call void @llvm.lifetime.start.p0(i64 4, ptr %9) #3
  store i32 0, ptr %9, align 4, !tbaa !16
  br label %14

14:                                               ; preds = %25, %4
  %15 = load i32, ptr %9, align 4, !tbaa !16
  %16 = load i32, ptr %7, align 4, !tbaa !16
  %17 = icmp slt i32 %15, %16
  br i1 %17, label %19, label %18

18:                                               ; preds = %14
  call void @llvm.lifetime.end.p0(i64 4, ptr %9) #3
  br label %28

19:                                               ; preds = %14
  %20 = load ptr, ptr %6, align 8, !tbaa !27
  %21 = getelementptr inbounds nuw %"class.Imf_3_4::TypedAttribute", ptr %10, i32 0, i32 1
  %22 = load i32, ptr %9, align 4, !tbaa !16
  %23 = sext i32 %22 to i64
  %24 = call noundef nonnull align 1 dereferenceable(1) ptr @_ZNSt7__cxx1112basic_stringIcSt11char_traitsIcESaIcEEixEm(ptr noundef nonnull align 8 dereferenceable(32) %21, i64 noundef %23)
  call void @_ZN7Imf_3_43Xdr4readINS_8StreamIOENS_7IStreamEEEvRT0_Rc(ptr noundef nonnull align 8 dereferenceable(40) %20, ptr noundef nonnull align 1 dereferenceable(1) %24)
  br label %25

25:                                               ; preds = %19
  %26 = load i32, ptr %9, align 4, !tbaa !16
  %27 = add nsw i32 %26, 1
  store i32 %27, ptr %9, align 4, !tbaa !16
  br label %14, !llvm.loop !29

28:                                               ; preds = %18
  ret void
}